; Function Attrs: mustprogress nounwind uwtable
define hidden noundef range(i32 0, 7) i32 @_Z32InitArrayShortSizeConstraintFunclb(i64 noundef %0, i1 noundef zeroext %1) local_unnamed_addr #0 {
  %3 = and i64 %0, 7
  %.not = icmp eq i64 %3, 0
  br i1 %.not, label %5, label %4

4:                                                ; preds = %2
  tail call void (i1, ptr, ...) @_ZN7JVMFlag10printErrorEbPKcz(i1 noundef zeroext %1, ptr noundef nonnull @.str.27, i64 noundef %0, i32 noundef 8) #6
  br label %5

5:                                                ; preds = %2, %4
  %.0 = phi i32 [ 6, %4 ], [ 0, %2 ]
  ret i32 %.0
}